; Function Attrs: mustprogress nounwind uwtable
define noundef zeroext i1 @_ZN6casadi8Function10check_nameERKNSt7__cxx1112basic_stringIcSt11char_traitsIcESaIcEEE(ptr noundef nonnull align 8 dereferenceable(32) %0) local_unnamed_addr #5 align 2 {
  %2 = getelementptr inbounds nuw i8, ptr %0, i64 8
  %3 = load i64, ptr %2, align 8, !tbaa !14
  %4 = icmp eq i64 %3, 0
  br i1 %4, label %.loopexit, label %.preheader37

5:                                                ; preds = %.preheader37
  %.016.add = add nuw nsw i64 %.016.idx39, 8
  %.not = icmp eq i64 %.016.add, 24
  br i1 %.not, label %9, label %.preheader37

.preheader37:                                     ; preds = %1, %5
  %.016.idx39 = phi i64 [ %.016.add, %5 ], [ 0, %1 ]
  %.016.ptr = getelementptr inbounds nuw i8, ptr @constinit.200, i64 %.016.idx39
  %6 = load ptr, ptr %.016.ptr, align 8, !tbaa !534
  %7 = tail call noundef i32 @_ZNKSt7__cxx1112basic_stringIcSt11char_traitsIcESaIcEE7compareEPKc(ptr noundef nonnull align 8 dereferenceable(32) %0, ptr noundef %6) #30
  %8 = icmp eq i32 %7, 0
  br i1 %8, label %.loopexit, label %5

9:                                                ; preds = %5
  %10 = load ptr, ptr %0, align 8, !tbaa !11
  %11 = load i8, ptr %10, align 1, !tbaa !13
  %12 = sext i8 %11 to i32
  %13 = tail call i32 @isalpha(i32 noundef %12) #34
  %.not17 = icmp eq i32 %13, 0
  br i1 %.not17, label %.loopexit, label %.preheader

.preheader:                                       ; preds = %9
  %14 = load i64, ptr %2, align 8, !tbaa !14
  %15 = getelementptr inbounds nuw i8, ptr %10, i64 %14
  %.not3541 = icmp samesign eq i64 %14, 1
  br i1 %.not3541, label %.loopexit, label %.lr.ph.preheader

.lr.ph.preheader:                                 ; preds = %.preheader
  %.sroa.023.040 = getelementptr inbounds nuw i8, ptr %10, i64 1
  br label %.lr.ph

.lr.ph:                                           ; preds = %.lr.ph.preheader, %.critedge
  %.sroa.023.043 = phi ptr [ %.sroa.023.0, %.critedge ], [ %.sroa.023.040, %.lr.ph.preheader ]
  %.pn42 = phi ptr [ %.sroa.023.043, %.critedge ], [ %10, %.lr.ph.preheader ]
  %16 = load i8, ptr %.sroa.023.043, align 1, !tbaa !13
  %17 = icmp eq i8 %16, 95
  br i1 %17, label %18, label %23

18:                                               ; preds = %.lr.ph
  %19 = getelementptr inbounds nuw i8, ptr %.pn42, i64 2
  %.not36 = icmp eq ptr %19, %15
  br i1 %.not36, label %.critedge, label %20

20:                                               ; preds = %18
  %21 = load i8, ptr %19, align 1, !tbaa !13
  %22 = icmp eq i8 %21, 95
  br i1 %22, label %.loopexit, label %.critedge

23:                                               ; preds = %.lr.ph
  %24 = sext i8 %16 to i32
  %25 = tail call i32 @isalnum(i32 noundef %24) #34
  %.not18 = icmp eq i32 %25, 0
  br i1 %.not18, label %.loopexit, label %.critedge

.critedge:                                        ; preds = %18, %20, %23
  %.sroa.023.0 = getelementptr inbounds nuw i8, ptr %.sroa.023.043, i64 1
  %.not35 = icmp eq ptr %.sroa.023.0, %15
  br i1 %.not35, label %.loopexit, label %.lr.ph, !llvm.loop !678

.loopexit:                                        ; preds = %.preheader37, %.critedge, %23, %20, %.preheader, %9, %1
  %.0 = phi i1 [ false, %1 ], [ false, %9 ], [ true, %.preheader ], [ true, %.critedge ], [ false, %23 ], [ false, %20 ], [ false, %.preheader37 ]
  ret i1 %.0
}